target datalayout = "e-m:e-p270:32:32-p271:32:32-p272:64:64-i64:64-i128:128-f80:128-n8:16:32:64-S128"
target triple = "x86_64-pc-linux-gnu"

%struct.AVChannelLayout = type { i32, i32, %union.anon.0, ptr }
%union.anon.0 = type { i64 }
%struct.AVCodecContext = type { ptr, i32, i32, ptr, i32, i32, ptr, ptr, ptr, i64, i32, i32, ptr, i32, %struct.AVRational, %struct.AVRational, %struct.AVRational, i32, i32, i32, i32, i32, %struct.AVRational, i32, i32, i32, i32, i32, i32, i32, i32, i32, i32, i32, ptr, ptr, i32, float, float, float, float, float, float, float, float, float, i32, i32, i32, i32, i32, i32, i32, i32, i32, i32, i32, i32, ptr, ptr, ptr, i32, i32, i32, i32, i32, i32, i32, i32, i32, i32, %struct.AVChannelLayout, i32, i32, i32, i32, i32, i32, i32, i32, ptr, i32, i32, i32, float, float, i32, i32, i32, i32, i32, ptr, i64, i64, float, float, i32, i32, ptr, ptr, i32, i32, i32, i32, i32, ptr, ptr, ptr, ptr, i32, i32, [8 x i64], i32, i32, i32, i32, i32, i32, i32, ptr, ptr, i32, i32, i32, i32, i32, i32, i32, i32, i32, i32, ptr, ptr, i32, i32, ptr, ptr, ptr, ptr, i32, i32, i64, i32, i32, i64, ptr, i64, ptr, i32, ptr, i32 }
%struct.AVRational = type { i32, i32 }
%struct.DVAudioContext = type { i32, i32, i32, [2000 x i16] }
%struct.AVPacket = type { ptr, i64, i64, ptr, i32, i32, i32, ptr, i32, i64, i64, ptr, ptr, %struct.AVRational }
%struct.AVFrame = type { [8 x ptr], [8 x i32], ptr, i32, i32, i32, i32, i32, %struct.AVRational, i64, i64, %struct.AVRational, i32, ptr, i32, i32, [8 x ptr], ptr, i32, ptr, i32, i32, i32, i32, i32, i32, i32, i64, ptr, i32, ptr, ptr, i64, i64, i64, i64, ptr, %struct.AVChannelLayout, i64 }

; Function Attrs: alwaysinline nounwind willreturn memory(none) uwtable
define internal zeroext i16 @av_bswap16(i16 noundef zeroext %0) #6 {
  %2 = alloca i16, align 2
  store i16 %0, ptr %2, align 2, !tbaa !46
  %3 = load i16, ptr %2, align 2, !tbaa !46
  %4 = zext i16 %3 to i32
  %5 = ashr i32 %4, 8
  %6 = load i16, ptr %2, align 2, !tbaa !46
  %7 = zext i16 %6 to i32
  %8 = shl i32 %7, 8
  %9 = or i32 %5, %8
  %10 = trunc i32 %9 to i16
  store i16 %10, ptr %2, align 2, !tbaa !46
  %11 = load i16, ptr %2, align 2, !tbaa !46
  ret i16 %11
}

; Function Attrs: inlinehint nounwind uwtable
define internal zeroext i16 @dv_audio_12to16(i16 noundef zeroext %0) #5 {
  %2 = alloca i16, align 2
  %3 = alloca i16, align 2
  %4 = alloca i16, align 2
  store i16 %0, ptr %2, align 2, !tbaa !46
  call void @llvm.lifetime.start.p0(i64 2, ptr %3) #7
  call void @llvm.lifetime.start.p0(i64 2, ptr %4) #7
  %5 = load i16, ptr %2, align 2, !tbaa !46
  %6 = zext i16 %5 to i32
  %7 = icmp slt i32 %6, 2048
  br i1 %7, label %8, label %11

8:                                                ; preds = %1
  %9 = load i16, ptr %2, align 2, !tbaa !46
  %10 = zext i16 %9 to i32
  br label %15

11:                                               ; preds = %1
  %12 = load i16, ptr %2, align 2, !tbaa !46
  %13 = zext i16 %12 to i32
  %14 = or i32 %13, 61440
  br label %15

15:                                               ; preds = %11, %8
  %16 = phi i32 [ %10, %8 ], [ %14, %11 ]
  %17 = trunc i32 %16 to i16
  store i16 %17, ptr %2, align 2, !tbaa !46
  %18 = load i16, ptr %2, align 2, !tbaa !46
  %19 = zext i16 %18 to i32
  %20 = and i32 %19, 3840
  %21 = ashr i32 %20, 8
  %22 = trunc i32 %21 to i16
  store i16 %22, ptr %3, align 2, !tbaa !46
  %23 = load i16, ptr %3, align 2, !tbaa !46
  %24 = zext i16 %23 to i32
  %25 = icmp slt i32 %24, 2
  br i1 %25, label %30, label %26

26:                                               ; preds = %15
  %27 = load i16, ptr %3, align 2, !tbaa !46
  %28 = zext i16 %27 to i32
  %29 = icmp sgt i32 %28, 13
  br i1 %29, label %30, label %32

30:                                               ; preds = %26, %15
  %31 = load i16, ptr %2, align 2, !tbaa !46
  store i16 %31, ptr %4, align 2, !tbaa !46
  br label %67

32:                                               ; preds = %26
  %33 = load i16, ptr %3, align 2, !tbaa !46
  %34 = zext i16 %33 to i32
  %35 = icmp slt i32 %34, 8
  br i1 %35, label %36, label %49

36:                                               ; preds = %32
  %37 = load i16, ptr %3, align 2, !tbaa !46
  %38 = add i16 %37, -1
  store i16 %38, ptr %3, align 2, !tbaa !46
  %39 = load i16, ptr %2, align 2, !tbaa !46
  %40 = zext i16 %39 to i32
  %41 = load i16, ptr %3, align 2, !tbaa !46
  %42 = zext i16 %41 to i32
  %43 = mul nsw i32 256, %42
  %44 = sub nsw i32 %40, %43
  %45 = load i16, ptr %3, align 2, !tbaa !46
  %46 = zext i16 %45 to i32
  %47 = shl i32 %44, %46
  %48 = trunc i32 %47 to i16
  store i16 %48, ptr %4, align 2, !tbaa !46
  br label %66

49:                                               ; preds = %32
  %50 = load i16, ptr %3, align 2, !tbaa !46
  %51 = zext i16 %50 to i32
  %52 = sub nsw i32 14, %51
  %53 = trunc i32 %52 to i16
  store i16 %53, ptr %3, align 2, !tbaa !46
  %54 = load i16, ptr %2, align 2, !tbaa !46
  %55 = zext i16 %54 to i32
  %56 = load i16, ptr %3, align 2, !tbaa !46
  %57 = zext i16 %56 to i32
  %58 = mul nsw i32 256, %57
  %59 = add nsw i32 %58, 1
  %60 = add nsw i32 %55, %59
  %61 = load i16, ptr %3, align 2, !tbaa !46
  %62 = zext i16 %61 to i32
  %63 = shl i32 %60, %62
  %64 = sub nsw i32 %63, 1
  %65 = trunc i32 %64 to i16
  store i16 %65, ptr %4, align 2, !tbaa !46
  br label %66

66:                                               ; preds = %49, %36
  br label %67

67:                                               ; preds = %66, %30
  %68 = load i16, ptr %4, align 2, !tbaa !46
  call void @llvm.lifetime.end.p0(i64 2, ptr %4) #7
  call void @llvm.lifetime.end.p0(i64 2, ptr %3) #7
  ret i16 %68
}

; Function Attrs: inlinehint nounwind uwtable
define internal i32 @dv_get_audio_sample_count(ptr noundef %0, i32 noundef %1) #5 {
  %3 = alloca i32, align 4
  %4 = alloca ptr, align 8
  %5 = alloca i32, align 4
  %6 = alloca i32, align 4
  %7 = alloca i32, align 4
  store ptr %0, ptr %4, align 8, !tbaa !57
  store i32 %1, ptr %5, align 4, !tbaa !44
  call void @llvm.lifetime.start.p0(i64 4, ptr %6) #7
  %8 = load ptr, ptr %4, align 8, !tbaa !57
  %9 = getelementptr inbounds i8, ptr %8, i64 0
  %10 = load i8, ptr %9, align 1, !tbaa !41
  %11 = zext i8 %10 to i32
  %12 = and i32 %11, 63
  store i32 %12, ptr %6, align 4, !tbaa !44
  %13 = load ptr, ptr %4, align 8, !tbaa !57
  %14 = getelementptr inbounds i8, ptr %13, i64 3
  %15 = load i8, ptr %14, align 1, !tbaa !41
  %16 = zext i8 %15 to i32
  %17 = ashr i32 %16, 3
  %18 = and i32 %17, 7
  switch i32 %18, label %32 [
    i32 0, label %19
    i32 1, label %25
    i32 2, label %31
  ]

19:                                               ; preds = %2
  %20 = load i32, ptr %6, align 4, !tbaa !44
  %21 = load i32, ptr %5, align 4, !tbaa !44
  %22 = icmp ne i32 %21, 0
  %23 = select i1 %22, i32 1896, i32 1580
  %24 = add nsw i32 %20, %23
  store i32 %24, ptr %3, align 4
  store i32 1, ptr %7, align 4
  br label %38

25:                                               ; preds = %2
  %26 = load i32, ptr %6, align 4, !tbaa !44
  %27 = load i32, ptr %5, align 4, !tbaa !44
  %28 = icmp ne i32 %27, 0
  %29 = select i1 %28, i32 1742, i32 1452
  %30 = add nsw i32 %26, %29
  store i32 %30, ptr %3, align 4
  store i32 1, ptr %7, align 4
  br label %38

31:                                               ; preds = %2
  br label %32

32:                                               ; preds = %2, %31
  %33 = load i32, ptr %6, align 4, !tbaa !44
  %34 = load i32, ptr %5, align 4, !tbaa !44
  %35 = icmp ne i32 %34, 0
  %36 = select i1 %35, i32 1264, i32 1053
  %37 = add nsw i32 %33, %36
  store i32 %37, ptr %3, align 4
  store i32 1, ptr %7, align 4
  br label %38

38:                                               ; preds = %32, %25, %19
  call void @llvm.lifetime.end.p0(i64 4, ptr %6) #7
  %39 = load i32, ptr %3, align 4
  ret i32 %39
}

; Function Attrs: nounwind uwtable
define internal i32 @decode_frame(ptr noundef %0, ptr noundef %1, ptr noundef %2, ptr noundef %3) #1 {
  %5 = alloca i32, align 4
  %6 = alloca ptr, align 8
  %7 = alloca ptr, align 8
  %8 = alloca ptr, align 8
  %9 = alloca ptr, align 8
  %10 = alloca ptr, align 8
  %11 = alloca ptr, align 8
  %12 = alloca ptr, align 8
  %13 = alloca i32, align 4
  %14 = alloca i32, align 4
  %15 = alloca i32, align 4
  %16 = alloca ptr, align 8
  store ptr %0, ptr %6, align 8, !tbaa !4
  store ptr %1, ptr %7, align 8, !tbaa !50
  store ptr %2, ptr %8, align 8, !tbaa !52
  store ptr %3, ptr %9, align 8, !tbaa !53
  call void @llvm.lifetime.start.p0(i64 8, ptr %10) #7
  %17 = load ptr, ptr %6, align 8, !tbaa !4
  %18 = getelementptr inbounds nuw %struct.AVCodecContext, ptr %17, i32 0, i32 6
  %19 = load ptr, ptr %18, align 8, !tbaa !9
  store ptr %19, ptr %10, align 8, !tbaa !29
  call void @llvm.lifetime.start.p0(i64 8, ptr %11) #7
  %20 = load ptr, ptr %9, align 8, !tbaa !53
  %21 = getelementptr inbounds nuw %struct.AVPacket, ptr %20, i32 0, i32 3
  %22 = load ptr, ptr %21, align 8, !tbaa !55
  store ptr %22, ptr %11, align 8, !tbaa !57
  call void @llvm.lifetime.start.p0(i64 8, ptr %12) #7
  call void @llvm.lifetime.start.p0(i64 4, ptr %13) #7
  call void @llvm.lifetime.start.p0(i64 4, ptr %14) #7
  %23 = load ptr, ptr %9, align 8, !tbaa !53
  %24 = getelementptr inbounds nuw %struct.AVPacket, ptr %23, i32 0, i32 4
  %25 = load i32, ptr %24, align 8, !tbaa !58
  %26 = load ptr, ptr %10, align 8, !tbaa !29
  %27 = getelementptr inbounds nuw %struct.DVAudioContext, ptr %26, i32 0, i32 0
  %28 = load i32, ptr %27, align 4, !tbaa !32
  %29 = icmp slt i32 %25, %28
  br i1 %29, label %30, label %31

30:                                               ; preds = %4
  store i32 -1094995529, ptr %5, align 4
  store i32 1, ptr %15, align 4
  br label %134

31:                                               ; preds = %4
  %32 = load ptr, ptr %9, align 8, !tbaa !53
  %33 = getelementptr inbounds nuw %struct.AVPacket, ptr %32, i32 0, i32 3
  %34 = load ptr, ptr %33, align 8, !tbaa !55
  %35 = getelementptr inbounds i8, ptr %34, i64 244
  %36 = load ptr, ptr %10, align 8, !tbaa !29
  %37 = getelementptr inbounds nuw %struct.DVAudioContext, ptr %36, i32 0, i32 2
  %38 = load i32, ptr %37, align 4, !tbaa !35
  %39 = call i32 @dv_get_audio_sample_count(ptr noundef %35, i32 noundef %38)
  %40 = load ptr, ptr %7, align 8, !tbaa !50
  %41 = getelementptr inbounds nuw %struct.AVFrame, ptr %40, i32 0, i32 5
  store i32 %39, ptr %41, align 8, !tbaa !59
  %42 = load ptr, ptr %6, align 8, !tbaa !4
  %43 = load ptr, ptr %7, align 8, !tbaa !50
  %44 = call i32 @ff_get_buffer(ptr noundef %42, ptr noundef %43, i32 noundef 0)
  store i32 %44, ptr %13, align 4, !tbaa !44
  %45 = icmp slt i32 %44, 0
  br i1 %45, label %46, label %48

46:                                               ; preds = %31
  %47 = load i32, ptr %13, align 4, !tbaa !44
  store i32 %47, ptr %5, align 4
  store i32 1, ptr %15, align 4
  br label %134

48:                                               ; preds = %31
  %49 = load ptr, ptr %7, align 8, !tbaa !50
  %50 = getelementptr inbounds nuw %struct.AVFrame, ptr %49, i32 0, i32 0
  %51 = getelementptr inbounds [8 x ptr], ptr %50, i64 0, i64 0
  %52 = load ptr, ptr %51, align 8, !tbaa !57
  store ptr %52, ptr %12, align 8, !tbaa !64
  store i32 0, ptr %14, align 4, !tbaa !44
  br label %53

53:                                               ; preds = %126, %48
  %54 = load i32, ptr %14, align 4, !tbaa !44
  %55 = load ptr, ptr %7, align 8, !tbaa !50
  %56 = getelementptr inbounds nuw %struct.AVFrame, ptr %55, i32 0, i32 5
  %57 = load i32, ptr %56, align 8, !tbaa !59
  %58 = icmp slt i32 %54, %57
  br i1 %58, label %59, label %129

59:                                               ; preds = %53
  call void @llvm.lifetime.start.p0(i64 8, ptr %16) #7
  %60 = load ptr, ptr %11, align 8, !tbaa !57
  %61 = load ptr, ptr %10, align 8, !tbaa !29
  %62 = getelementptr inbounds nuw %struct.DVAudioContext, ptr %61, i32 0, i32 3
  %63 = load i32, ptr %14, align 4, !tbaa !44
  %64 = sext i32 %63 to i64
  %65 = getelementptr inbounds [2000 x i16], ptr %62, i64 0, i64 %64
  %66 = load i16, ptr %65, align 2, !tbaa !46
  %67 = sext i16 %66 to i64
  %68 = getelementptr inbounds i8, ptr %60, i64 %67
  store ptr %68, ptr %16, align 8, !tbaa !57
  %69 = load ptr, ptr %10, align 8, !tbaa !29
  %70 = getelementptr inbounds nuw %struct.DVAudioContext, ptr %69, i32 0, i32 1
  %71 = load i32, ptr %70, align 4, !tbaa !37
  %72 = icmp ne i32 %71, 0
  br i1 %72, label %73, label %106

73:                                               ; preds = %59
  %74 = load ptr, ptr %16, align 8, !tbaa !57
  %75 = getelementptr inbounds i8, ptr %74, i64 0
  %76 = load i8, ptr %75, align 1, !tbaa !41
  %77 = zext i8 %76 to i32
  %78 = shl i32 %77, 4
  %79 = load ptr, ptr %16, align 8, !tbaa !57
  %80 = getelementptr inbounds i8, ptr %79, i64 2
  %81 = load i8, ptr %80, align 1, !tbaa !41
  %82 = zext i8 %81 to i32
  %83 = ashr i32 %82, 4
  %84 = and i32 %83, 15
  %85 = or i32 %78, %84
  %86 = trunc i32 %85 to i16
  %87 = call zeroext i16 @dv_audio_12to16(i16 noundef zeroext %86)
  %88 = load ptr, ptr %12, align 8, !tbaa !64
  %89 = getelementptr inbounds nuw i16, ptr %88, i32 1
  store ptr %89, ptr %12, align 8, !tbaa !64
  store i16 %87, ptr %88, align 2, !tbaa !46
  %90 = load ptr, ptr %16, align 8, !tbaa !57
  %91 = getelementptr inbounds i8, ptr %90, i64 1
  %92 = load i8, ptr %91, align 1, !tbaa !41
  %93 = zext i8 %92 to i32
  %94 = shl i32 %93, 4
  %95 = load ptr, ptr %16, align 8, !tbaa !57
  %96 = getelementptr inbounds i8, ptr %95, i64 2
  %97 = load i8, ptr %96, align 1, !tbaa !41
  %98 = zext i8 %97 to i32
  %99 = ashr i32 %98, 0
  %100 = and i32 %99, 15
  %101 = or i32 %94, %100
  %102 = trunc i32 %101 to i16
  %103 = call zeroext i16 @dv_audio_12to16(i16 noundef zeroext %102)
  %104 = load ptr, ptr %12, align 8, !tbaa !64
  %105 = getelementptr inbounds nuw i16, ptr %104, i32 1
  store ptr %105, ptr %12, align 8, !tbaa !64
  store i16 %103, ptr %104, align 2, !tbaa !46
  br label %125

106:                                              ; preds = %59
  %107 = load ptr, ptr %16, align 8, !tbaa !57
  %108 = getelementptr inbounds i8, ptr %107, i64 0
  %109 = load i16, ptr %108, align 1, !tbaa !41
  %110 = call zeroext i16 @av_bswap16(i16 noundef zeroext %109) #8
  %111 = load ptr, ptr %12, align 8, !tbaa !64
  %112 = getelementptr inbounds nuw i16, ptr %111, i32 1
  store ptr %112, ptr %12, align 8, !tbaa !64
  store i16 %110, ptr %111, align 2, !tbaa !46
  %113 = load ptr, ptr %16, align 8, !tbaa !57
  %114 = load ptr, ptr %10, align 8, !tbaa !29
  %115 = getelementptr inbounds nuw %struct.DVAudioContext, ptr %114, i32 0, i32 2
  %116 = load i32, ptr %115, align 4, !tbaa !35
  %117 = icmp ne i32 %116, 0
  %118 = select i1 %117, i32 4320, i32 3600
  %119 = sext i32 %118 to i64
  %120 = getelementptr inbounds i8, ptr %113, i64 %119
  %121 = load i16, ptr %120, align 1, !tbaa !41
  %122 = call zeroext i16 @av_bswap16(i16 noundef zeroext %121) #8
  %123 = load ptr, ptr %12, align 8, !tbaa !64
  %124 = getelementptr inbounds nuw i16, ptr %123, i32 1
  store ptr %124, ptr %12, align 8, !tbaa !64
  store i16 %122, ptr %123, align 2, !tbaa !46
  br label %125

125:                                              ; preds = %106, %73
  call void @llvm.lifetime.end.p0(i64 8, ptr %16) #7
  br label %126

126:                                              ; preds = %125
  %127 = load i32, ptr %14, align 4, !tbaa !44
  %128 = add nsw i32 %127, 1
  store i32 %128, ptr %14, align 4, !tbaa !44
  br label %53, !llvm.loop !65

129:                                              ; preds = %53
  %130 = load ptr, ptr %8, align 8, !tbaa !52
  store i32 1, ptr %130, align 4, !tbaa !44
  %131 = load ptr, ptr %10, align 8, !tbaa !29
  %132 = getelementptr inbounds nuw %struct.DVAudioContext, ptr %131, i32 0, i32 0
  %133 = load i32, ptr %132, align 4, !tbaa !32
  store i32 %133, ptr %5, align 4
  store i32 1, ptr %15, align 4
  br label %134

134:                                              ; preds = %129, %46, %30
  call void @llvm.lifetime.end.p0(i64 4, ptr %14) #7
  call void @llvm.lifetime.end.p0(i64 4, ptr %13) #7
  call void @llvm.lifetime.end.p0(i64 8, ptr %12) #7
  call void @llvm.lifetime.end.p0(i64 8, ptr %11) #7
  call void @llvm.lifetime.end.p0(i64 8, ptr %10) #7
  %135 = load i32, ptr %5, align 4
  ret i32 %135
}