; Function Attrs: nounwind uwtable
define internal i32 @decode_frame(ptr noundef %0, ptr noundef %1, ptr noundef writeonly captures(none) %2, ptr noundef readonly captures(none) %3) #1 {
  %5 = getelementptr inbounds nuw i8, ptr %0, i64 32
  %6 = load ptr, ptr %5, align 8, !tbaa !4
  %7 = getelementptr inbounds nuw i8, ptr %3, i64 24
  %8 = load ptr, ptr %7, align 8, !tbaa !42
  %9 = getelementptr inbounds nuw i8, ptr %3, i64 32
  %10 = load i32, ptr %9, align 8, !tbaa !44
  %11 = load i32, ptr %6, align 4, !tbaa !28
  %12 = icmp slt i32 %10, %11
  br i1 %12, label %119, label %13

13:                                               ; preds = %4
  %14 = getelementptr inbounds nuw i8, ptr %8, i64 244
  %15 = getelementptr inbounds nuw i8, ptr %6, i64 8
  %16 = load i32, ptr %15, align 4, !tbaa !31
  %.val = load i8, ptr %14, align 1, !tbaa !36
  %17 = getelementptr i8, ptr %8, i64 247
  %.val35 = load i8, ptr %17, align 1, !tbaa !36
  %18 = lshr i8 %.val35, 3
  %19 = and i8 %18, 7
  %.not9.i = icmp eq i32 %16, 0
  switch i8 %19, label %24 [
    i8 0, label %20
    i8 1, label %22
  ]

20:                                               ; preds = %13
  %21 = select i1 %.not9.i, i32 1580, i32 1896
  br label %dv_get_audio_sample_count.exit

22:                                               ; preds = %13
  %23 = select i1 %.not9.i, i32 1452, i32 1742
  br label %dv_get_audio_sample_count.exit

24:                                               ; preds = %13
  %25 = select i1 %.not9.i, i32 1053, i32 1264
  br label %dv_get_audio_sample_count.exit

dv_get_audio_sample_count.exit:                   ; preds = %20, %22, %24
  %.pn.i = phi i32 [ %25, %24 ], [ %23, %22 ], [ %21, %20 ]
  %26 = and i8 %.val, 63
  %27 = zext nneg i8 %26 to i32
  %.0.i = add nuw nsw i32 %.pn.i, %27
  %28 = getelementptr inbounds nuw i8, ptr %1, i64 112
  store i32 %.0.i, ptr %28, align 8, !tbaa !45
  %29 = tail call i32 @ff_get_buffer(ptr noundef nonnull %0, ptr noundef %1, i32 noundef 0) #4
  %30 = icmp slt i32 %29, 0
  br i1 %30, label %119, label %31

31:                                               ; preds = %dv_get_audio_sample_count.exit
  %32 = load ptr, ptr %1, align 8, !tbaa !50
  %33 = load i32, ptr %28, align 8, !tbaa !45
  %34 = icmp sgt i32 %33, 0
  br i1 %34, label %.lr.ph, label %._crit_edge

.lr.ph:                                           ; preds = %31
  %35 = getelementptr inbounds nuw i8, ptr %6, i64 12
  %36 = getelementptr inbounds nuw i8, ptr %6, i64 4
  %37 = load i32, ptr %36, align 4, !tbaa !33
  %.not = icmp eq i32 %37, 0
  br i1 %.not, label %.lr.ph.split.us, label %.lr.ph.split.preheader

.lr.ph.split.preheader:                           ; preds = %.lr.ph
  %wide.trip.count = zext nneg i32 %33 to i64
  br label %.lr.ph.split

.lr.ph.split.us:                                  ; preds = %.lr.ph
  %38 = load i32, ptr %15, align 4, !tbaa !31
  %.not34.us = icmp eq i32 %38, 0
  %39 = select i1 %.not34.us, i64 3600, i64 4320
  %wide.trip.count47 = zext nneg i32 %33 to i64
  br label %40

40:                                               ; preds = %40, %.lr.ph.split.us
  %indvars.iv44 = phi i64 [ %indvars.iv.next45, %40 ], [ 0, %.lr.ph.split.us ]
  %.03240.us = phi ptr [ %.1.us, %40 ], [ %32, %.lr.ph.split.us ]
  %41 = getelementptr inbounds nuw [2000 x i16], ptr %35, i64 0, i64 %indvars.iv44
  %42 = load i16, ptr %41, align 2, !tbaa !38
  %43 = sext i16 %42 to i64
  %44 = getelementptr inbounds i8, ptr %8, i64 %43
  %45 = load i16, ptr %44, align 1, !tbaa !36
  %46 = tail call i16 @llvm.bswap.i16(i16 %45)
  %47 = getelementptr inbounds nuw i8, ptr %.03240.us, i64 2
  store i16 %46, ptr %.03240.us, align 2, !tbaa !38
  %48 = getelementptr inbounds nuw i8, ptr %44, i64 %39
  %49 = load i16, ptr %48, align 1, !tbaa !36
  %50 = tail call i16 @llvm.bswap.i16(i16 %49)
  store i16 %50, ptr %47, align 2, !tbaa !38
  %.1.us = getelementptr inbounds nuw i8, ptr %.03240.us, i64 4
  %indvars.iv.next45 = add nuw nsw i64 %indvars.iv44, 1
  %exitcond48.not = icmp eq i64 %indvars.iv.next45, %wide.trip.count47
  br i1 %exitcond48.not, label %._crit_edge, label %40, !llvm.loop !51

.lr.ph.split:                                     ; preds = %.lr.ph.split.preheader, %dv_audio_12to16.exit39
  %indvars.iv = phi i64 [ 0, %.lr.ph.split.preheader ], [ %indvars.iv.next, %dv_audio_12to16.exit39 ]
  %.03240 = phi ptr [ %32, %.lr.ph.split.preheader ], [ %.1, %dv_audio_12to16.exit39 ]
  %51 = getelementptr inbounds nuw [2000 x i16], ptr %35, i64 0, i64 %indvars.iv
  %52 = load i16, ptr %51, align 2, !tbaa !38
  %53 = sext i16 %52 to i64
  %54 = getelementptr inbounds i8, ptr %8, i64 %53
  %55 = load i8, ptr %54, align 1, !tbaa !36
  %56 = zext i8 %55 to i16
  %57 = shl nuw nsw i16 %56, 4
  %58 = getelementptr inbounds nuw i8, ptr %54, i64 2
  %59 = load i8, ptr %58, align 1, !tbaa !36
  %60 = lshr i8 %59, 4
  %61 = zext nneg i8 %60 to i16
  %62 = or disjoint i16 %57, %61
  %63 = or disjoint i16 %62, -4096
  %64 = icmp slt i8 %55, 0
  %65 = select i1 %64, i16 %63, i16 %62
  %66 = zext i16 %65 to i32
  %67 = lshr i16 %65, 8
  %68 = and i16 %67, 15
  %69 = add nsw i16 %68, -14
  %or.cond.i = icmp ult i16 %69, -12
  br i1 %or.cond.i, label %dv_audio_12to16.exit, label %70

70:                                               ; preds = %.lr.ph.split
  %71 = icmp samesign ult i16 %68, 8
  br i1 %71, label %72, label %79

72:                                               ; preds = %70
  %73 = add nsw i16 %68, -1
  %74 = zext nneg i16 %73 to i32
  %75 = shl nuw nsw i32 %74, 8
  %76 = sub nsw i32 %66, %75
  %77 = shl nsw i32 %76, %74
  %78 = trunc i32 %77 to i16
  br label %dv_audio_12to16.exit

79:                                               ; preds = %70
  %80 = sub nuw nsw i16 14, %68
  %81 = shl nuw nsw i16 %80, 8
  %82 = add nsw i16 %65, 1
  %83 = add nsw i16 %82, %81
  %84 = shl i16 %83, %80
  %85 = add i16 %84, -1
  br label %dv_audio_12to16.exit

dv_audio_12to16.exit:                             ; preds = %.lr.ph.split, %72, %79
  %.0.i36 = phi i16 [ %78, %72 ], [ %85, %79 ], [ %65, %.lr.ph.split ]
  %86 = getelementptr inbounds nuw i8, ptr %.03240, i64 2
  store i16 %.0.i36, ptr %.03240, align 2, !tbaa !38
  %87 = getelementptr inbounds nuw i8, ptr %54, i64 1
  %88 = load i8, ptr %87, align 1, !tbaa !36
  %89 = zext i8 %88 to i16
  %90 = shl nuw nsw i16 %89, 4
  %91 = load i8, ptr %58, align 1, !tbaa !36
  %92 = and i8 %91, 15
  %93 = zext nneg i8 %92 to i16
  %94 = or disjoint i16 %90, %93
  %95 = or disjoint i16 %94, -4096
  %96 = icmp slt i8 %88, 0
  %97 = select i1 %96, i16 %95, i16 %94
  %98 = zext i16 %97 to i32
  %99 = lshr i16 %97, 8
  %100 = and i16 %99, 15
  %101 = add nsw i16 %100, -14
  %or.cond.i37 = icmp ult i16 %101, -12
  br i1 %or.cond.i37, label %dv_audio_12to16.exit39, label %102

102:                                              ; preds = %dv_audio_12to16.exit
  %103 = icmp samesign ult i16 %100, 8
  br i1 %103, label %104, label %111

104:                                              ; preds = %102
  %105 = add nsw i16 %100, -1
  %106 = zext nneg i16 %105 to i32
  %107 = shl nuw nsw i32 %106, 8
  %108 = sub nsw i32 %98, %107
  %109 = shl nsw i32 %108, %106
  %110 = trunc i32 %109 to i16
  br label %dv_audio_12to16.exit39

111:                                              ; preds = %102
  %112 = sub nuw nsw i16 14, %100
  %113 = shl nuw nsw i16 %112, 8
  %114 = add nsw i16 %97, 1
  %115 = add nsw i16 %114, %113
  %116 = shl i16 %115, %112
  %117 = add i16 %116, -1
  br label %dv_audio_12to16.exit39

dv_audio_12to16.exit39:                           ; preds = %dv_audio_12to16.exit, %104, %111
  %.0.i38 = phi i16 [ %110, %104 ], [ %117, %111 ], [ %97, %dv_audio_12to16.exit ]
  store i16 %.0.i38, ptr %86, align 2, !tbaa !38
  %.1 = getelementptr inbounds nuw i8, ptr %.03240, i64 4
  %indvars.iv.next = add nuw nsw i64 %indvars.iv, 1
  %exitcond.not = icmp eq i64 %indvars.iv.next, %wide.trip.count
  br i1 %exitcond.not, label %._crit_edge, label %.lr.ph.split, !llvm.loop !51

._crit_edge:                                      ; preds = %dv_audio_12to16.exit39, %40, %31
  store i32 1, ptr %2, align 4, !tbaa !35
  %118 = load i32, ptr %6, align 4, !tbaa !28
  br label %119

119:                                              ; preds = %dv_get_audio_sample_count.exit, %4, %._crit_edge
  %.0 = phi i32 [ %118, %._crit_edge ], [ -1094995529, %4 ], [ %29, %dv_get_audio_sample_count.exit ]
  ret i32 %.0
}